target datalayout = "e-m:e-p270:32:32-p271:32:32-p272:64:64-i64:64-i128:128-f80:128-n8:16:32:64-S128"
target triple = "x86_64-pc-linux-gnu"

@.str.14 = private unnamed_addr constant [36 x i8] c"../openssl/test/ssl_test_ctx_test.c\00", align 1
@.str.15 = private unnamed_addr constant [28 x i8] c"Error parsing test options\0A\00", align 1
@.str.16 = private unnamed_addr constant [23 x i8] c"conf = NCONF_new(NULL)\00", align 1
@conf = internal global ptr null, align 8
@.str.17 = private unnamed_addr constant [45 x i8] c"NCONF_load(conf, test_get_argument(0), NULL)\00", align 1
@.str.18 = private unnamed_addr constant [2 x i8] c"0\00", align 1
@.str.19 = private unnamed_addr constant [25 x i8] c"test_empty_configuration\00", align 1
@.str.20 = private unnamed_addr constant [24 x i8] c"test_good_configuration\00", align 1
@.str.21 = private unnamed_addr constant [23 x i8] c"test_bad_configuration\00", align 1

; Function Attrs: nounwind uwtable
define dso_local i32 @setup_tests() #0 {
  %1 = alloca i32, align 4
  %2 = call i32 @test_skip_common_options()
  %3 = icmp ne i32 %2, 0
  br i1 %3, label %5, label %4

4:                                                ; preds = %0
  call void (ptr, i32, ptr, ...) @test_error(ptr noundef @.str.14, i32 noundef 245, ptr noundef @.str.15)
  store i32 0, ptr %1, align 4
  br label %18

5:                                                ; preds = %0
  %6 = call ptr @NCONF_new(ptr noundef null)
  store ptr %6, ptr @conf, align 8, !tbaa !4
  %7 = call i32 @test_ptr(ptr noundef @.str.14, i32 noundef 249, ptr noundef @.str.16, ptr noundef %6)
  %8 = icmp ne i32 %7, 0
  br i1 %8, label %10, label %9

9:                                                ; preds = %5
  store i32 0, ptr %1, align 4
  br label %18

10:                                               ; preds = %5
  %11 = load ptr, ptr @conf, align 8, !tbaa !4
  %12 = call ptr @test_get_argument(i64 noundef 0)
  %13 = call i32 @NCONF_load(ptr noundef %11, ptr noundef %12, ptr noundef null)
  %14 = call i32 @test_int_gt(ptr noundef @.str.14, i32 noundef 252, ptr noundef @.str.17, ptr noundef @.str.18, i32 noundef %13, i32 noundef 0)
  %15 = icmp ne i32 %14, 0
  br i1 %15, label %17, label %16

16:                                               ; preds = %10
  store i32 0, ptr %1, align 4
  br label %18

17:                                               ; preds = %10
  call void @add_test(ptr noundef @.str.19, ptr noundef @test_empty_configuration)
  call void @add_test(ptr noundef @.str.20, ptr noundef @test_good_configuration)
  call void @add_all_tests(ptr noundef @.str.21, ptr noundef @test_bad_configuration, i32 noundef 16, i32 noundef 1)
  store i32 1, ptr %1, align 4
  br label %18

18:                                               ; preds = %17, %16, %9, %4
  %19 = load i32, ptr %1, align 4
  ret i32 %19
}