; Function Attrs: nounwind uwtable
define dso_local range(i32 0, 2) i32 @setup_tests() local_unnamed_addr #1 {
  %1 = tail call i32 @test_skip_common_options() #3
  %.not = icmp eq i32 %1, 0
  br i1 %.not, label %2, label %3

2:                                                ; preds = %0
  tail call void (ptr, i32, ptr, ...) @test_error(ptr noundef nonnull @.str.14, i32 noundef 245, ptr noundef nonnull @.str.15) #3
  br label %12

3:                                                ; preds = %0
  %4 = tail call ptr @NCONF_new(ptr noundef null) #3
  store ptr %4, ptr @conf, align 8, !tbaa !4
  %5 = tail call i32 @test_ptr(ptr noundef nonnull @.str.14, i32 noundef 249, ptr noundef nonnull @.str.16, ptr noundef %4) #3
  %.not1 = icmp eq i32 %5, 0
  br i1 %.not1, label %12, label %6

6:                                                ; preds = %3
  %7 = load ptr, ptr @conf, align 8, !tbaa !4
  %8 = tail call ptr @test_get_argument(i64 noundef 0) #3
  %9 = tail call i32 @NCONF_load(ptr noundef %7, ptr noundef %8, ptr noundef null) #3
  %10 = tail call i32 @test_int_gt(ptr noundef nonnull @.str.14, i32 noundef 252, ptr noundef nonnull @.str.17, ptr noundef nonnull @.str.18, i32 noundef %9, i32 noundef 0) #3
  %.not2 = icmp eq i32 %10, 0
  br i1 %.not2, label %12, label %11

11:                                               ; preds = %6
  tail call void @add_test(ptr noundef nonnull @.str.19, ptr noundef nonnull @test_empty_configuration) #3
  tail call void @add_test(ptr noundef nonnull @.str.20, ptr noundef nonnull @test_good_configuration) #3
  tail call void @add_all_tests(ptr noundef nonnull @.str.21, ptr noundef nonnull @test_bad_configuration, i32 noundef 16, i32 noundef 1) #3
  br label %12

12:                                               ; preds = %6, %3, %11, %2
  %.0 = phi i32 [ 1, %11 ], [ 0, %2 ], [ 0, %3 ], [ 0, %6 ]
  ret i32 %.0
}